; Function Attrs: mustprogress nounwind willreturn uwtable
define void @Llb_ManGroupStop(ptr noundef %0) local_unnamed_addr #0 {
  %2 = icmp eq ptr %0, null
  br i1 %2, label %42, label %3

3:                                                ; preds = %1
  %4 = getelementptr inbounds nuw i8, ptr %0, i64 32
  %5 = load ptr, ptr %4, align 8, !tbaa !3
  %6 = getelementptr inbounds nuw i8, ptr %5, i64 64
  %7 = load ptr, ptr %6, align 8, !tbaa !18
  %8 = load i32, ptr %0, align 8, !tbaa !25
  %9 = getelementptr i8, ptr %7, i64 8
  %.val = load ptr, ptr %9, align 8, !tbaa !15
  %10 = sext i32 %8 to i64
  %11 = getelementptr inbounds ptr, ptr %.val, i64 %10
  store ptr null, ptr %11, align 8, !tbaa !26
  %12 = getelementptr inbounds nuw i8, ptr %0, i64 8
  %13 = load ptr, ptr %12, align 8, !tbaa !27
  %14 = icmp eq ptr %13, null
  br i1 %14, label %Vec_PtrFreeP.exit, label %15

15:                                               ; preds = %3
  %16 = getelementptr inbounds nuw i8, ptr %13, i64 8
  %17 = load ptr, ptr %16, align 8, !tbaa !15
  %.not.i = icmp eq ptr %17, null
  br i1 %.not.i, label %20, label %.thread.i

.thread.i:                                        ; preds = %15
  tail call void @free(ptr noundef nonnull %17) #16
  %18 = load ptr, ptr %12, align 8, !tbaa !27
  %19 = getelementptr inbounds nuw i8, ptr %18, i64 8
  store ptr null, ptr %19, align 8, !tbaa !15
  br label %20

20:                                               ; preds = %.thread.i, %15
  %21 = phi ptr [ %18, %.thread.i ], [ %13, %15 ]
  tail call void @free(ptr noundef nonnull %21) #16
  store ptr null, ptr %12, align 8, !tbaa !27
  br label %Vec_PtrFreeP.exit

Vec_PtrFreeP.exit:                                ; preds = %3, %20
  %22 = getelementptr inbounds nuw i8, ptr %0, i64 16
  %23 = load ptr, ptr %22, align 8, !tbaa !27
  %24 = icmp eq ptr %23, null
  br i1 %24, label %Vec_PtrFreeP.exit10, label %25

25:                                               ; preds = %Vec_PtrFreeP.exit
  %26 = getelementptr inbounds nuw i8, ptr %23, i64 8
  %27 = load ptr, ptr %26, align 8, !tbaa !15
  %.not.i8 = icmp eq ptr %27, null
  br i1 %.not.i8, label %30, label %.thread.i9

.thread.i9:                                       ; preds = %25
  tail call void @free(ptr noundef nonnull %27) #16
  %28 = load ptr, ptr %22, align 8, !tbaa !27
  %29 = getelementptr inbounds nuw i8, ptr %28, i64 8
  store ptr null, ptr %29, align 8, !tbaa !15
  br label %30

30:                                               ; preds = %.thread.i9, %25
  %31 = phi ptr [ %28, %.thread.i9 ], [ %23, %25 ]
  tail call void @free(ptr noundef nonnull %31) #16
  store ptr null, ptr %22, align 8, !tbaa !27
  br label %Vec_PtrFreeP.exit10

Vec_PtrFreeP.exit10:                              ; preds = %Vec_PtrFreeP.exit, %30
  %32 = getelementptr inbounds nuw i8, ptr %0, i64 24
  %33 = load ptr, ptr %32, align 8, !tbaa !27
  %34 = icmp eq ptr %33, null
  br i1 %34, label %Vec_PtrFreeP.exit13, label %35

35:                                               ; preds = %Vec_PtrFreeP.exit10
  %36 = getelementptr inbounds nuw i8, ptr %33, i64 8
  %37 = load ptr, ptr %36, align 8, !tbaa !15
  %.not.i11 = icmp eq ptr %37, null
  br i1 %.not.i11, label %40, label %.thread.i12

.thread.i12:                                      ; preds = %35
  tail call void @free(ptr noundef nonnull %37) #16
  %38 = load ptr, ptr %32, align 8, !tbaa !27
  %39 = getelementptr inbounds nuw i8, ptr %38, i64 8
  store ptr null, ptr %39, align 8, !tbaa !15
  br label %40

40:                                               ; preds = %.thread.i12, %35
  %41 = phi ptr [ %38, %.thread.i12 ], [ %33, %35 ]
  tail call void @free(ptr noundef nonnull %41) #16
  br label %Vec_PtrFreeP.exit13

Vec_PtrFreeP.exit13:                              ; preds = %Vec_PtrFreeP.exit10, %40
  tail call void @free(ptr noundef nonnull %0) #16
  br label %42

42:                                               ; preds = %Vec_PtrFreeP.exit13, %1
  ret void
}